target datalayout = "e-m:e-p270:32:32-p271:32:32-p272:64:64-i64:64-i128:128-f80:128-n8:16:32:64-S128"
target triple = "x86_64-pc-linux-gnu"

%"class.gmx::TextLineWrapperSettings" = type <{ i32, i32, i32, i8, i8, [2 x i8] }>
%"class.gmx::TextLineWrapper" = type { %"class.gmx::TextLineWrapperSettings" }

; Function Attrs: mustprogress nounwind uwtable
define linkonce_odr noundef i32 @_ZNK3gmx23TextLineWrapperSettings6indentEv(ptr noundef nonnull align 4 dereferenceable(14) %0) #0 comdat align 2 {
  %2 = alloca ptr, align 8
  store ptr %0, ptr %2, align 8
  %3 = load ptr, ptr %2, align 8
  %4 = getelementptr inbounds %"class.gmx::TextLineWrapperSettings", ptr %3, i32 0, i32 1
  %5 = load i32, ptr %4, align 4
  ret i32 %5
}

; Function Attrs: mustprogress nounwind uwtable
define linkonce_odr noundef i32 @_ZNK3gmx23TextLineWrapperSettings10lineLengthEv(ptr noundef nonnull align 4 dereferenceable(14) %0) #0 comdat align 2 {
  %2 = alloca ptr, align 8
  store ptr %0, ptr %2, align 8
  %3 = load ptr, ptr %2, align 8
  %4 = getelementptr inbounds %"class.gmx::TextLineWrapperSettings", ptr %3, i32 0, i32 0
  %5 = load i32, ptr %4, align 4
  ret i32 %5
}

; Function Attrs: mustprogress uwtable
define noundef zeroext i1 @_ZNK3gmx15TextLineWrapper9isTrivialEv(ptr noundef nonnull align 4 dereferenceable(16) %0) #3 align 2 {
  %2 = alloca ptr, align 8
  store ptr %0, ptr %2, align 8
  %3 = load ptr, ptr %2, align 8
  %4 = getelementptr inbounds %"class.gmx::TextLineWrapper", ptr %3, i32 0, i32 0
  %5 = call noundef i32 @_ZNK3gmx23TextLineWrapperSettings10lineLengthEv(ptr noundef nonnull align 4 dereferenceable(14) %4)
  %6 = icmp eq i32 %5, 0
  br i1 %6, label %7, label %16

7:                                                ; preds = %1
  %8 = getelementptr inbounds %"class.gmx::TextLineWrapper", ptr %3, i32 0, i32 0
  %9 = call noundef i32 @_ZNK3gmx23TextLineWrapperSettings6indentEv(ptr noundef nonnull align 4 dereferenceable(14) %8)
  %10 = icmp eq i32 %9, 0
  br i1 %10, label %11, label %16

11:                                               ; preds = %7
  %12 = getelementptr inbounds %"class.gmx::TextLineWrapper", ptr %3, i32 0, i32 0
  %13 = getelementptr inbounds %"class.gmx::TextLineWrapperSettings", ptr %12, i32 0, i32 2
  %14 = load i32, ptr %13, align 4
  %15 = icmp sle i32 %14, 0
  br label %16

16:                                               ; preds = %11, %7, %1
  %17 = phi i1 [ false, %7 ], [ false, %1 ], [ %15, %11 ]
  ret i1 %17
}