; Function Attrs: mustprogress nofree norecurse nosync nounwind willreturn memory(argmem: read) uwtable
define noundef zeroext i1 @_ZNK3gmx15TextLineWrapper9isTrivialEv(ptr nocapture noundef nonnull readonly align 4 dereferenceable(16) %0) local_unnamed_addr #17 align 2 {
  %2 = load i32, ptr %0, align 4
  %3 = icmp eq i32 %2, 0
  %4 = getelementptr inbounds i8, ptr %0, i64 4
  %5 = load i32, ptr %4, align 4
  %6 = icmp eq i32 %5, 0
  %or.cond = select i1 %3, i1 %6, i1 false
  br i1 %or.cond, label %7, label %11

7:                                                ; preds = %1
  %8 = getelementptr inbounds i8, ptr %0, i64 8
  %9 = load i32, ptr %8, align 4
  %10 = icmp slt i32 %9, 1
  br label %11

11:                                               ; preds = %7, %1
  %12 = phi i1 [ false, %1 ], [ %10, %7 ]
  ret i1 %12
}